; ModuleID = '15/2355.cpp'
source_filename = "15/2355.cpp"
target datalayout = "e-m:e-p270:32:32-p271:32:32-p272:64:64-i64:64-f80:128-n8:16:32:64-S128"
target triple = "x86_64-pc-linux-gnu"

%"class.std::ios_base::Init" = type { i8 }
%"class.std::basic_istream" = type { i32 (...)**, i64, %"class.std::basic_ios" }
%"class.std::basic_ios" = type { %"class.std::ios_base", %"class.std::basic_ostream"*, i8, i8, %"class.std::basic_streambuf"*, %"class.std::ctype"*, %"class.std::num_put"*, %"class.std::num_get"* }
%"class.std::ios_base" = type { i32 (...)**, i64, i64, i32, i32, i32, %"struct.std::ios_base::_Callback_list"*, %"struct.std::ios_base::_Words", [8 x %"struct.std::ios_base::_Words"], i32, %"struct.std::ios_base::_Words"*, %"class.std::locale" }
%"struct.std::ios_base::_Callback_list" = type { %"struct.std::ios_base::_Callback_list"*, void (i32, %"class.std::ios_base"*, i32)*, i32, i32 }
%"struct.std::ios_base::_Words" = type { i8*, i64 }
%"class.std::locale" = type { %"class.std::locale::_Impl"* }
%"class.std::locale::_Impl" = type { i32, %"class.std::locale::facet"**, i64, %"class.std::locale::facet"**, i8** }
%"class.std::locale::facet" = type <{ i32 (...)**, i32, [4 x i8] }>
%"class.std::basic_ostream" = type { i32 (...)**, %"class.std::basic_ios" }
%"class.std::basic_streambuf" = type { i32 (...)**, i8*, i8*, i8*, i8*, i8*, i8*, %"class.std::locale" }
%"class.std::ctype" = type <{ %"class.std::locale::facet.base", [4 x i8], %struct.__locale_struct*, i8, [7 x i8], i32*, i32*, i16*, i8, [256 x i8], [256 x i8], i8, [6 x i8] }>
%"class.std::locale::facet.base" = type <{ i32 (...)**, i32 }>
%struct.__locale_struct = type { [13 x %struct.__locale_data*], i16*, i32*, i32*, [13 x i8*] }
%struct.__locale_data = type opaque
%"class.std::num_put" = type { %"class.std::locale::facet.base", [4 x i8] }
%"class.std::num_get" = type { %"class.std::locale::facet.base", [4 x i8] }

@_ZStL8__ioinit = internal global %"class.std::ios_base::Init" zeroinitializer, align 1
@__dso_handle = external hidden global i8
@_ZSt3cin = external dso_local global %"class.std::basic_istream", align 8
@_ZSt4cout = external dso_local global %"class.std::basic_ostream", align 8
@llvm.global_ctors = appending global [1 x { i32, void ()*, i8* }] [{ i32, void ()*, i8* } { i32 65535, void ()* @_GLOBAL__sub_I_2355.cpp, i8* null }]

; Function Attrs: noinline uwtable
define internal void @__cxx_global_var_init() #0 section ".text.startup" {
  call void @_ZNSt8ios_base4InitC1Ev(%"class.std::ios_base::Init"* @_ZStL8__ioinit)
  %1 = call i32 @__cxa_atexit(void (i8*)* bitcast (void (%"class.std::ios_base::Init"*)* @_ZNSt8ios_base4InitD1Ev to void (i8*)*), i8* getelementptr inbounds (%"class.std::ios_base::Init", %"class.std::ios_base::Init"* @_ZStL8__ioinit, i32 0, i32 0), i8* @__dso_handle) #3
  ret void
}

declare dso_local void @_ZNSt8ios_base4InitC1Ev(%"class.std::ios_base::Init"*) unnamed_addr #1

; Function Attrs: nounwind
declare dso_local void @_ZNSt8ios_base4InitD1Ev(%"class.std::ios_base::Init"*) unnamed_addr #2

; Function Attrs: nounwind
declare dso_local i32 @__cxa_atexit(void (i8*)*, i8*, i8*) #3

; Function Attrs: noinline norecurse uwtable
define dso_local i32 @main() #4 {
  %1 = alloca i32, align 4
  %2 = alloca i32, align 4
  %3 = alloca i32, align 4
  %4 = alloca i32, align 4
  %5 = alloca [1001 x [1001 x i32]], align 16
  %6 = alloca i32, align 4
  %7 = alloca [1001 x i32]*, align 8
  %8 = alloca i32, align 4
  %9 = alloca i32, align 4
  %10 = alloca i32, align 4
  %11 = alloca i32, align 4
  store i32 0, i32* %1, align 4
  store i32 0, i32* %6, align 4
  store i32 0, i32* %8, align 4
  store i32 0, i32* %9, align 4
  store i32 0, i32* %10, align 4
  store i32 0, i32* %11, align 4
  %12 = call dereferenceable(280) %"class.std::basic_istream"* @_ZNSirsERi(%"class.std::basic_istream"* @_ZSt3cin, i32* dereferenceable(4) %2)
  %13 = getelementptr inbounds [1001 x [1001 x i32]], [1001 x [1001 x i32]]* %5, i64 0, i64 0
  store [1001 x i32]* %13, [1001 x i32]** %7, align 8
  store i32 0, i32* %3, align 4
  br label %14

14:                                               ; preds = %37, %0
  %15 = load i32, i32* %3, align 4
  %16 = load i32, i32* %2, align 4
  %17 = icmp slt i32 %15, %16
  br i1 %17, label %18, label %40

18:                                               ; preds = %14
  store i32 0, i32* %4, align 4
  br label %19

19:                                               ; preds = %33, %18
  %20 = load i32, i32* %4, align 4
  %21 = load i32, i32* %2, align 4
  %22 = icmp slt i32 %20, %21
  br i1 %22, label %23, label %36

23:                                               ; preds = %19
  %24 = load [1001 x i32]*, [1001 x i32]** %7, align 8
  %25 = load i32, i32* %3, align 4
  %26 = sext i32 %25 to i64
  %27 = getelementptr inbounds [1001 x i32], [1001 x i32]* %24, i64 %26
  %28 = getelementptr inbounds [1001 x i32], [1001 x i32]* %27, i64 0, i64 0
  %29 = load i32, i32* %4, align 4
  %30 = sext i32 %29 to i64
  %31 = getelementptr inbounds i32, i32* %28, i64 %30
  %32 = call dereferenceable(280) %"class.std::basic_istream"* @_ZNSirsERi(%"class.std::basic_istream"* @_ZSt3cin, i32* dereferenceable(4) %31)
  br label %33

33:                                               ; preds = %23
  %34 = load i32, i32* %4, align 4
  %35 = add nsw i32 %34, 1
  store i32 %35, i32* %4, align 4
  br label %19

36:                                               ; preds = %19
  br label %37

37:                                               ; preds = %36
  %38 = load i32, i32* %3, align 4
  %39 = add nsw i32 %38, 1
  store i32 %39, i32* %3, align 4
  br label %14

40:                                               ; preds = %14
  store i32 0, i32* %3, align 4
  br label %41

41:                                               ; preds = %121, %40
  %42 = load i32, i32* %3, align 4
  %43 = load i32, i32* %2, align 4
  %44 = icmp slt i32 %42, %43
  br i1 %44, label %45, label %124

45:                                               ; preds = %41
  store i32 0, i32* %4, align 4
  br label %46

46:                                               ; preds = %117, %45
  %47 = load i32, i32* %4, align 4
  %48 = load i32, i32* %2, align 4
  %49 = icmp slt i32 %47, %48
  br i1 %49, label %50, label %120

50:                                               ; preds = %46
  %51 = load [1001 x i32]*, [1001 x i32]** %7, align 8
  %52 = load i32, i32* %3, align 4
  %53 = sext i32 %52 to i64
  %54 = getelementptr inbounds [1001 x i32], [1001 x i32]* %51, i64 %53
  %55 = getelementptr inbounds [1001 x i32], [1001 x i32]* %54, i64 0, i64 0
  %56 = load i32, i32* %4, align 4
  %57 = sext i32 %56 to i64
  %58 = getelementptr inbounds i32, i32* %55, i64 %57
  %59 = load i32, i32* %58, align 4
  %60 = icmp eq i32 %59, 0
  br i1 %60, label %61, label %116

61:                                               ; preds = %50
  %62 = load [1001 x i32]*, [1001 x i32]** %7, align 8
  %63 = load i32, i32* %3, align 4
  %64 = sext i32 %63 to i64
  %65 = getelementptr inbounds [1001 x i32], [1001 x i32]* %62, i64 %64
  %66 = getelementptr inbounds [1001 x i32], [1001 x i32]* %65, i64 0, i64 0
  %67 = load i32, i32* %4, align 4
  %68 = sext i32 %67 to i64
  %69 = getelementptr inbounds i32, i32* %66, i64 %68
  %70 = getelementptr inbounds i32, i32* %69, i64 1
  %71 = load i32, i32* %70, align 4
  %72 = icmp eq i32 %71, 0
  br i1 %72, label %73, label %88

73:                                               ; preds = %61
  %74 = load [1001 x i32]*, [1001 x i32]** %7, align 8
  %75 = load i32, i32* %3, align 4
  %76 = sext i32 %75 to i64
  %77 = getelementptr inbounds [1001 x i32], [1001 x i32]* %74, i64 %76
  %78 = getelementptr inbounds [1001 x i32], [1001 x i32]* %77, i64 1
  %79 = getelementptr inbounds [1001 x i32], [1001 x i32]* %78, i64 0, i64 0
  %80 = load i32, i32* %4, align 4
  %81 = sext i32 %80 to i64
  %82 = getelementptr inbounds i32, i32* %79, i64 %81
  %83 = load i32, i32* %82, align 4
  %84 = icmp eq i32 %83, 0
  br i1 %84, label %85, label %88

85:                                               ; preds = %73
  %86 = load i32, i32* %3, align 4
  store i32 %86, i32* %8, align 4
  %87 = load i32, i32* %4, align 4
  store i32 %87, i32* %9, align 4
  br label %88

88:                                               ; preds = %85, %73, %61
  %89 = load [1001 x i32]*, [1001 x i32]** %7, align 8
  %90 = load i32, i32* %3, align 4
  %91 = sext i32 %90 to i64
  %92 = getelementptr inbounds [1001 x i32], [1001 x i32]* %89, i64 %91
  %93 = getelementptr inbounds [1001 x i32], [1001 x i32]* %92, i64 0, i64 0
  %94 = load i32, i32* %4, align 4
  %95 = sext i32 %94 to i64
  %96 = getelementptr inbounds i32, i32* %93, i64 %95
  %97 = getelementptr inbounds i32, i32* %96, i64 -1
  %98 = load i32, i32* %97, align 4
  %99 = icmp eq i32 %98, 0
  br i1 %99, label %100, label %115

100:                                              ; preds = %88
  %101 = load [1001 x i32]*, [1001 x i32]** %7, align 8
  %102 = load i32, i32* %3, align 4
  %103 = sext i32 %102 to i64
  %104 = getelementptr inbounds [1001 x i32], [1001 x i32]* %101, i64 %103
  %105 = getelementptr inbounds [1001 x i32], [1001 x i32]* %104, i64 -1
  %106 = getelementptr inbounds [1001 x i32], [1001 x i32]* %105, i64 0, i64 0
  %107 = load i32, i32* %4, align 4
  %108 = sext i32 %107 to i64
  %109 = getelementptr inbounds i32, i32* %106, i64 %108
  %110 = load i32, i32* %109, align 4
  %111 = icmp eq i32 %110, 0
  br i1 %111, label %112, label %115

112:                                              ; preds = %100
  %113 = load i32, i32* %3, align 4
  store i32 %113, i32* %10, align 4
  %114 = load i32, i32* %4, align 4
  store i32 %114, i32* %11, align 4
  br label %115

115:                                              ; preds = %112, %100, %88
  br label %116

116:                                              ; preds = %115, %50
  br label %117

117:                                              ; preds = %116
  %118 = load i32, i32* %4, align 4
  %119 = add nsw i32 %118, 1
  store i32 %119, i32* %4, align 4
  br label %46

120:                                              ; preds = %46
  br label %121

121:                                              ; preds = %120
  %122 = load i32, i32* %3, align 4
  %123 = add nsw i32 %122, 1
  store i32 %123, i32* %3, align 4
  br label %41

124:                                              ; preds = %41
  %125 = load i32, i32* %10, align 4
  %126 = load i32, i32* %8, align 4
  %127 = sub nsw i32 %125, %126
  %128 = sub nsw i32 %127, 1
  %129 = load i32, i32* %11, align 4
  %130 = load i32, i32* %9, align 4
  %131 = sub nsw i32 %129, %130
  %132 = sub nsw i32 %131, 1
  %133 = mul nsw i32 %128, %132
  store i32 %133, i32* %6, align 4
  %134 = load i32, i32* %6, align 4
  %135 = call dereferenceable(272) %"class.std::basic_ostream"* @_ZNSolsEi(%"class.std::basic_ostream"* @_ZSt4cout, i32 %134)
  %136 = call dereferenceable(272) %"class.std::basic_ostream"* @_ZNSolsEPFRSoS_E(%"class.std::basic_ostream"* %135, %"class.std::basic_ostream"* (%"class.std::basic_ostream"*)* @_ZSt4endlIcSt11char_traitsIcEERSt13basic_ostreamIT_T0_ES6_)
  ret i32 0
}

declare dso_local dereferenceable(280) %"class.std::basic_istream"* @_ZNSirsERi(%"class.std::basic_istream"*, i32* dereferenceable(4)) #1

declare dso_local dereferenceable(272) %"class.std::basic_ostream"* @_ZNSolsEi(%"class.std::basic_ostream"*, i32) #1

declare dso_local dereferenceable(272) %"class.std::basic_ostream"* @_ZNSolsEPFRSoS_E(%"class.std::basic_ostream"*, %"class.std::basic_ostream"* (%"class.std::basic_ostream"*)*) #1

declare dso_local dereferenceable(272) %"class.std::basic_ostream"* @_ZSt4endlIcSt11char_traitsIcEERSt13basic_ostreamIT_T0_ES6_(%"class.std::basic_ostream"* dereferenceable(272)) #1

; Function Attrs: noinline uwtable
define internal void @_GLOBAL__sub_I_2355.cpp() #0 section ".text.startup" {
  call void @__cxx_global_var_init()
  ret void
}


!llvm.module.flags = !{!0}
!llvm.ident = !{!1}

!0 = !{i32 1, !"wchar_size", i32 4}
!1 = !{!"clang version 10.0.0-4ubuntu1 "}
