; ModuleID = 'source-C-CXX/14/2355.cpp'
source_filename = "source-C-CXX/14/2355.cpp"
target datalayout = "e-m:e-p270:32:32-p271:32:32-p272:64:64-i64:64-f80:128-n8:16:32:64-S128"
target triple = "x86_64-pc-linux-gnu"

%"class.std::ios_base::Init" = type { i8 }
%"class.std::basic_istream" = type { i32 (...)**, i64, %"class.std::basic_ios" }
%"class.std::basic_ios" = type { %"class.std::ios_base", %"class.std::basic_ostream"*, i8, i8, %"class.std::basic_streambuf"*, %"class.std::ctype"*, %"class.std::num_put"*, %"class.std::num_get"* }
%"class.std::ios_base" = type { i32 (...)**, i64, i64, i32, i32, i32, %"struct.std::ios_base::_Callback_list"*, %"struct.std::ios_base::_Words", [8 x %"struct.std::ios_base::_Words"], i32, %"struct.std::ios_base::_Words"*, %"class.std::locale" }
%"struct.std::ios_base::_Callback_list" = type { %"struct.std::ios_base::_Callback_list"*, void (i32, %"class.std::ios_base"*, i32)*, i32, i32 }
%"struct.std::ios_base::_Words" = type { i8*, i64 }
%"class.std::locale" = type { %"class.std::locale::_Impl"* }
%"class.std::locale::_Impl" = type { i32, %"class.std::locale::facet"**, i64, %"class.std::locale::facet"**, i8** }
%"class.std::locale::facet" = type <{ i32 (...)**, i32, [4 x i8] }>
%"class.std::basic_ostream" = type { i32 (...)**, %"class.std::basic_ios" }
%"class.std::basic_streambuf" = type { i32 (...)**, i8*, i8*, i8*, i8*, i8*, i8*, %"class.std::locale" }
%"class.std::ctype" = type <{ %"class.std::locale::facet.base", [4 x i8], %struct.__locale_struct*, i8, [7 x i8], i32*, i32*, i16*, i8, [256 x i8], [256 x i8], i8, [6 x i8] }>
%"class.std::locale::facet.base" = type <{ i32 (...)**, i32 }>
%struct.__locale_struct = type { [13 x %struct.__locale_data*], i16*, i32*, i32*, [13 x i8*] }
%struct.__locale_data = type opaque
%"class.std::num_put" = type { %"class.std::locale::facet.base", [4 x i8] }
%"class.std::num_get" = type { %"class.std::locale::facet.base", [4 x i8] }

@_ZStL8__ioinit = internal global %"class.std::ios_base::Init" zeroinitializer, align 1
@__dso_handle = external hidden global i8
@_ZSt3cin = external global %"class.std::basic_istream", align 8
@_ZSt4cout = external global %"class.std::basic_ostream", align 8
@llvm.global_ctors = appending global [1 x { i32, void ()*, i8* }] [{ i32, void ()*, i8* } { i32 65535, void ()* @_GLOBAL__sub_I_2355.cpp, i8* null }]

declare void @_ZNSt8ios_base4InitC1Ev(%"class.std::ios_base::Init"* nonnull align 1 dereferenceable(1)) unnamed_addr #0

; Function Attrs: nounwind
declare void @_ZNSt8ios_base4InitD1Ev(%"class.std::ios_base::Init"* nonnull align 1 dereferenceable(1)) unnamed_addr #1

; Function Attrs: nofree nounwind
declare i32 @__cxa_atexit(void (i8*)*, i8*, i8*) local_unnamed_addr #2

; Function Attrs: mustprogress norecurse sspstrong uwtable
define dso_local i32 @main() local_unnamed_addr #3 {
  %1 = alloca i32, align 4
  %2 = alloca [1001 x [1001 x i32]], align 16
  %3 = bitcast i32* %1 to i8*
  call void @llvm.lifetime.start.p0i8(i64 4, i8* nonnull %3) #7
  %4 = bitcast [1001 x [1001 x i32]]* %2 to i8*
  call void @llvm.lifetime.start.p0i8(i64 4008004, i8* nonnull %4) #7
  %5 = call nonnull align 8 dereferenceable(16) %"class.std::basic_istream"* @_ZNSirsERi(%"class.std::basic_istream"* nonnull align 8 dereferenceable(16) @_ZSt3cin, i32* nonnull align 4 dereferenceable(4) %1)
  %6 = load i32, i32* %1, align 4, !tbaa !5
  %7 = icmp sgt i32 %6, 0
  br i1 %7, label %8, label %81

8:                                                ; preds = %0, %76
  %9 = phi i32 [ %77, %76 ], [ %6, %0 ]
  %10 = phi i64 [ %79, %76 ], [ 0, %0 ]
  %11 = icmp sgt i32 %9, 0
  br i1 %11, label %68, label %76

12:                                               ; preds = %76
  %13 = icmp sgt i32 %77, 0
  br i1 %13, label %14, label %81

14:                                               ; preds = %12
  %15 = zext i32 %77 to i64
  br label %16

16:                                               ; preds = %14, %65
  %17 = phi i64 [ 0, %14 ], [ %66, %65 ]
  %18 = phi i32 [ 0, %14 ], [ %62, %65 ]
  %19 = phi i32 [ 0, %14 ], [ %61, %65 ]
  %20 = phi i32 [ 0, %14 ], [ %60, %65 ]
  %21 = phi i32 [ 0, %14 ], [ %59, %65 ]
  %22 = getelementptr inbounds [1001 x [1001 x i32]], [1001 x [1001 x i32]]* %2, i64 0, i64 %17
  %23 = trunc i64 %17 to i32
  %24 = trunc i64 %17 to i32
  br label %25

25:                                               ; preds = %16, %58
  %26 = phi i64 [ 0, %16 ], [ %63, %58 ]
  %27 = phi i32 [ %18, %16 ], [ %62, %58 ]
  %28 = phi i32 [ %19, %16 ], [ %61, %58 ]
  %29 = phi i32 [ %20, %16 ], [ %60, %58 ]
  %30 = phi i32 [ %21, %16 ], [ %59, %58 ]
  %31 = getelementptr inbounds [1001 x [1001 x i32]], [1001 x [1001 x i32]]* %2, i64 0, i64 %17, i64 %26
  %32 = load i32, i32* %31, align 4, !tbaa !5
  %33 = icmp eq i32 %32, 0
  br i1 %33, label %34, label %58

34:                                               ; preds = %25
  %35 = getelementptr inbounds i32, i32* %31, i64 1
  %36 = load i32, i32* %35, align 4, !tbaa !5
  %37 = icmp eq i32 %36, 0
  br i1 %37, label %38, label %45

38:                                               ; preds = %34
  %39 = getelementptr inbounds [1001 x i32], [1001 x i32]* %22, i64 1, i64 %26
  %40 = load i32, i32* %39, align 4, !tbaa !5
  %41 = icmp eq i32 %40, 0
  %42 = select i1 %41, i32 %23, i32 %30
  %43 = trunc i64 %26 to i32
  %44 = select i1 %41, i32 %43, i32 %29
  br label %45

45:                                               ; preds = %38, %34
  %46 = phi i32 [ %30, %34 ], [ %42, %38 ]
  %47 = phi i32 [ %29, %34 ], [ %44, %38 ]
  %48 = getelementptr inbounds i32, i32* %31, i64 -1
  %49 = load i32, i32* %48, align 4, !tbaa !5
  %50 = icmp eq i32 %49, 0
  br i1 %50, label %51, label %58

51:                                               ; preds = %45
  %52 = getelementptr inbounds [1001 x i32], [1001 x i32]* %22, i64 -1, i64 %26
  %53 = load i32, i32* %52, align 4, !tbaa !5
  %54 = icmp eq i32 %53, 0
  %55 = select i1 %54, i32 %24, i32 %28
  %56 = trunc i64 %26 to i32
  %57 = select i1 %54, i32 %56, i32 %27
  br label %58

58:                                               ; preds = %51, %45, %25
  %59 = phi i32 [ %46, %45 ], [ %30, %25 ], [ %46, %51 ]
  %60 = phi i32 [ %47, %45 ], [ %29, %25 ], [ %47, %51 ]
  %61 = phi i32 [ %28, %45 ], [ %28, %25 ], [ %55, %51 ]
  %62 = phi i32 [ %27, %45 ], [ %27, %25 ], [ %57, %51 ]
  %63 = add nuw nsw i64 %26, 1
  %64 = icmp eq i64 %63, %15
  br i1 %64, label %65, label %25, !llvm.loop !9

65:                                               ; preds = %58
  %66 = add nuw nsw i64 %17, 1
  %67 = icmp eq i64 %66, %15
  br i1 %67, label %81, label %16, !llvm.loop !11

68:                                               ; preds = %8, %68
  %69 = phi i64 [ %72, %68 ], [ 0, %8 ]
  %70 = getelementptr inbounds [1001 x [1001 x i32]], [1001 x [1001 x i32]]* %2, i64 0, i64 %10, i64 %69
  %71 = call nonnull align 8 dereferenceable(16) %"class.std::basic_istream"* @_ZNSirsERi(%"class.std::basic_istream"* nonnull align 8 dereferenceable(16) @_ZSt3cin, i32* nonnull align 4 dereferenceable(4) %70)
  %72 = add nuw nsw i64 %69, 1
  %73 = load i32, i32* %1, align 4, !tbaa !5
  %74 = sext i32 %73 to i64
  %75 = icmp slt i64 %72, %74
  br i1 %75, label %68, label %76, !llvm.loop !12

76:                                               ; preds = %68, %8
  %77 = phi i32 [ %9, %8 ], [ %73, %68 ]
  %78 = sext i32 %77 to i64
  %79 = add nuw nsw i64 %10, 1
  %80 = icmp slt i64 %79, %78
  br i1 %80, label %8, label %12, !llvm.loop !13

81:                                               ; preds = %65, %0, %12
  %82 = phi i32 [ 0, %12 ], [ 0, %0 ], [ %59, %65 ]
  %83 = phi i32 [ 0, %12 ], [ 0, %0 ], [ %60, %65 ]
  %84 = phi i32 [ 0, %12 ], [ 0, %0 ], [ %61, %65 ]
  %85 = phi i32 [ 0, %12 ], [ 0, %0 ], [ %62, %65 ]
  %86 = xor i32 %82, -1
  %87 = add i32 %84, %86
  %88 = xor i32 %83, -1
  %89 = add i32 %85, %88
  %90 = mul nsw i32 %89, %87
  %91 = call nonnull align 8 dereferenceable(8) %"class.std::basic_ostream"* @_ZNSolsEi(%"class.std::basic_ostream"* nonnull align 8 dereferenceable(8) @_ZSt4cout, i32 %90)
  %92 = bitcast %"class.std::basic_ostream"* %91 to i8**
  %93 = load i8*, i8** %92, align 8, !tbaa !15
  %94 = getelementptr i8, i8* %93, i64 -24
  %95 = bitcast i8* %94 to i64*
  %96 = load i64, i64* %95, align 8
  %97 = bitcast %"class.std::basic_ostream"* %91 to i8*
  %98 = add nsw i64 %96, 240
  %99 = getelementptr inbounds i8, i8* %97, i64 %98
  %100 = bitcast i8* %99 to %"class.std::ctype"**
  %101 = load %"class.std::ctype"*, %"class.std::ctype"** %100, align 8, !tbaa !17
  %102 = icmp eq %"class.std::ctype"* %101, null
  br i1 %102, label %103, label %104

103:                                              ; preds = %81
  call void @_ZSt16__throw_bad_castv() #8
  unreachable

104:                                              ; preds = %81
  %105 = getelementptr inbounds %"class.std::ctype", %"class.std::ctype"* %101, i64 0, i32 8
  %106 = load i8, i8* %105, align 8, !tbaa !21
  %107 = icmp eq i8 %106, 0
  br i1 %107, label %111, label %108

108:                                              ; preds = %104
  %109 = getelementptr inbounds %"class.std::ctype", %"class.std::ctype"* %101, i64 0, i32 9, i64 10
  %110 = load i8, i8* %109, align 1, !tbaa !23
  br label %117

111:                                              ; preds = %104
  call void @_ZNKSt5ctypeIcE13_M_widen_initEv(%"class.std::ctype"* nonnull align 8 dereferenceable(570) %101)
  %112 = bitcast %"class.std::ctype"* %101 to i8 (%"class.std::ctype"*, i8)***
  %113 = load i8 (%"class.std::ctype"*, i8)**, i8 (%"class.std::ctype"*, i8)*** %112, align 8, !tbaa !15
  %114 = getelementptr inbounds i8 (%"class.std::ctype"*, i8)*, i8 (%"class.std::ctype"*, i8)** %113, i64 6
  %115 = load i8 (%"class.std::ctype"*, i8)*, i8 (%"class.std::ctype"*, i8)** %114, align 8
  %116 = call signext i8 %115(%"class.std::ctype"* nonnull align 8 dereferenceable(570) %101, i8 signext 10)
  br label %117

117:                                              ; preds = %108, %111
  %118 = phi i8 [ %110, %108 ], [ %116, %111 ]
  %119 = call nonnull align 8 dereferenceable(8) %"class.std::basic_ostream"* @_ZNSo3putEc(%"class.std::basic_ostream"* nonnull align 8 dereferenceable(8) %91, i8 signext %118)
  %120 = call nonnull align 8 dereferenceable(8) %"class.std::basic_ostream"* @_ZNSo5flushEv(%"class.std::basic_ostream"* nonnull align 8 dereferenceable(8) %119)
  call void @llvm.lifetime.end.p0i8(i64 4008004, i8* nonnull %4) #7
  call void @llvm.lifetime.end.p0i8(i64 4, i8* nonnull %3) #7
  ret i32 0
}

; Function Attrs: argmemonly mustprogress nofree nosync nounwind willreturn
declare void @llvm.lifetime.start.p0i8(i64 immarg, i8* nocapture) #4

declare nonnull align 8 dereferenceable(16) %"class.std::basic_istream"* @_ZNSirsERi(%"class.std::basic_istream"* nonnull align 8 dereferenceable(16), i32* nonnull align 4 dereferenceable(4)) local_unnamed_addr #0

declare nonnull align 8 dereferenceable(8) %"class.std::basic_ostream"* @_ZNSolsEi(%"class.std::basic_ostream"* nonnull align 8 dereferenceable(8), i32) local_unnamed_addr #0

; Function Attrs: argmemonly mustprogress nofree nosync nounwind willreturn
declare void @llvm.lifetime.end.p0i8(i64 immarg, i8* nocapture) #4

declare nonnull align 8 dereferenceable(8) %"class.std::basic_ostream"* @_ZNSo3putEc(%"class.std::basic_ostream"* nonnull align 8 dereferenceable(8), i8 signext) local_unnamed_addr #0

declare nonnull align 8 dereferenceable(8) %"class.std::basic_ostream"* @_ZNSo5flushEv(%"class.std::basic_ostream"* nonnull align 8 dereferenceable(8)) local_unnamed_addr #0

; Function Attrs: noreturn
declare void @_ZSt16__throw_bad_castv() local_unnamed_addr #5

declare void @_ZNKSt5ctypeIcE13_M_widen_initEv(%"class.std::ctype"* nonnull align 8 dereferenceable(570)) local_unnamed_addr #0

; Function Attrs: sspstrong uwtable
define internal void @_GLOBAL__sub_I_2355.cpp() #6 section ".text.startup" {
  tail call void @_ZNSt8ios_base4InitC1Ev(%"class.std::ios_base::Init"* nonnull align 1 dereferenceable(1) @_ZStL8__ioinit)
  %1 = tail call i32 @__cxa_atexit(void (i8*)* bitcast (void (%"class.std::ios_base::Init"*)* @_ZNSt8ios_base4InitD1Ev to void (i8*)*), i8* getelementptr inbounds (%"class.std::ios_base::Init", %"class.std::ios_base::Init"* @_ZStL8__ioinit, i64 0, i32 0), i8* nonnull @__dso_handle) #7
  ret void
}


!llvm.module.flags = !{!0, !1, !2, !3}
!llvm.ident = !{!4}

!0 = !{i32 1, !"wchar_size", i32 4}
!1 = !{i32 7, !"PIC Level", i32 2}
!2 = !{i32 7, !"PIE Level", i32 2}
!3 = !{i32 7, !"uwtable", i32 1}
!4 = !{!"clang version 13.0.0"}
!5 = !{!6, !6, i64 0}
!6 = !{!"int", !7, i64 0}
!7 = !{!"omnipotent char", !8, i64 0}
!8 = !{!"Simple C++ TBAA"}
!9 = distinct !{!9, !10}
!10 = !{!"llvm.loop.mustprogress"}
!11 = distinct !{!11, !10}
!12 = distinct !{!12, !10}
!13 = distinct !{!13, !10, !14}
!14 = !{!"llvm.loop.unswitch.partial.disable"}
!15 = !{!16, !16, i64 0}
!16 = !{!"vtable pointer", !8, i64 0}
!17 = !{!18, !19, i64 240}
!18 = !{!"_ZTSSt9basic_iosIcSt11char_traitsIcEE", !19, i64 216, !7, i64 224, !20, i64 225, !19, i64 232, !19, i64 240, !19, i64 248, !19, i64 256}
!19 = !{!"any pointer", !7, i64 0}
!20 = !{!"bool", !7, i64 0}
!21 = !{!22, !7, i64 56}
!22 = !{!"_ZTSSt5ctypeIcE", !19, i64 16, !20, i64 24, !19, i64 32, !19, i64 40, !19, i64 48, !7, i64 56, !7, i64 57, !7, i64 313, !7, i64 569}
!23 = !{!7, !7, i64 0}
